target datalayout = "e-m:e-p270:32:32-p271:32:32-p272:64:64-i64:64-i128:128-f80:128-n8:16:32:64-S128"
target triple = "x86_64-pc-linux-gnu"

%"class.perf::TestBase" = type { %"class.testing::Test", %"class.std::vector.3", %"class.std::vector.3", i32, %"class.std::vector.8", i64, i64, i64, i32, i32, i32, i32, i32, [4 x i8], %"struct.perf::performance_metrics", i8, %"class.perf::TestBase::_declareHelper" }
%"class.testing::Test" = type { ptr, %"class.testing::internal::scoped_ptr" }
%"class.testing::internal::scoped_ptr" = type { ptr }
%"class.std::vector.3" = type { %"struct.std::_Vector_base.4" }
%"struct.std::_Vector_base.4" = type { %"struct.std::_Vector_base<std::pair<int, cv::Size_<int>>, std::allocator<std::pair<int, cv::Size_<int>>>>::_Vector_impl" }
%"struct.std::_Vector_base<std::pair<int, cv::Size_<int>>, std::allocator<std::pair<int, cv::Size_<int>>>>::_Vector_impl" = type { %"struct.std::_Vector_base<std::pair<int, cv::Size_<int>>, std::allocator<std::pair<int, cv::Size_<int>>>>::_Vector_impl_data" }
%"struct.std::_Vector_base<std::pair<int, cv::Size_<int>>, std::allocator<std::pair<int, cv::Size_<int>>>>::_Vector_impl_data" = type { ptr, ptr, ptr }
%"class.std::vector.8" = type { %"struct.std::_Vector_base.9" }
%"struct.std::_Vector_base.9" = type { %"struct.std::_Vector_base<long, std::allocator<long>>::_Vector_impl" }
%"struct.std::_Vector_base<long, std::allocator<long>>::_Vector_impl" = type { %"struct.std::_Vector_base<long, std::allocator<long>>::_Vector_impl_data" }
%"struct.std::_Vector_base<long, std::allocator<long>>::_Vector_impl_data" = type { ptr, ptr, ptr }
%"struct.perf::performance_metrics" = type <{ i64, i64, i32, i32, double, double, double, double, double, double, double, i32, [4 x i8] }>
%"class.perf::TestBase::_declareHelper" = type { ptr }

; Function Attrs: mustprogress nounwind uwtable
define linkonce_odr hidden void @_ZNSt12_Destroy_auxILb1EE9__destroyIPlEEvT_S3_(ptr noundef %0, ptr noundef %1) #6 comdat align 2 {
  %3 = alloca ptr, align 8
  %4 = alloca ptr, align 8
  store ptr %0, ptr %3, align 8, !tbaa !135
  store ptr %1, ptr %4, align 8, !tbaa !135
  ret void
}

; Function Attrs: inlinehint mustprogress uwtable
define linkonce_odr void @_ZSt8_DestroyIPlEvT_S1_(ptr noundef %0, ptr noundef %1) #8 comdat {
  %3 = alloca ptr, align 8
  %4 = alloca ptr, align 8
  store ptr %0, ptr %3, align 8, !tbaa !135
  store ptr %1, ptr %4, align 8, !tbaa !135
  %5 = load ptr, ptr %3, align 8, !tbaa !135
  %6 = load ptr, ptr %4, align 8, !tbaa !135
  call void @_ZNSt12_Destroy_auxILb1EE9__destroyIPlEEvT_S3_(ptr noundef %5, ptr noundef %6)
  ret void
}

; Function Attrs: noinline noreturn nounwind uwtable
define linkonce_odr hidden void @__clang_call_terminate(ptr noundef %0) #10 comdat {
  %2 = call ptr @__cxa_begin_catch(ptr %0) #3
  call void @_ZSt9terminatev() #24
  unreachable
}

; Function Attrs: inlinehint mustprogress uwtable
define linkonce_odr void @_ZSt8_DestroyIPllEvT_S1_RSaIT0_E(ptr noundef %0, ptr noundef %1, ptr noundef nonnull align 1 dereferenceable(1) %2) #8 comdat {
  %4 = alloca ptr, align 8
  %5 = alloca ptr, align 8
  %6 = alloca ptr, align 8
  store ptr %0, ptr %4, align 8, !tbaa !135
  store ptr %1, ptr %5, align 8, !tbaa !135
  store ptr %2, ptr %6, align 8, !tbaa !473
  %7 = load ptr, ptr %4, align 8, !tbaa !135
  %8 = load ptr, ptr %5, align 8, !tbaa !135
  call void @_ZSt8_DestroyIPlEvT_S1_(ptr noundef %7, ptr noundef %8)
  ret void
}

; Function Attrs: mustprogress nounwind uwtable
define linkonce_odr hidden noundef nonnull align 1 dereferenceable(1) ptr @_ZNSt12_Vector_baseIlSaIlEE19_M_get_Tp_allocatorEv(ptr noundef nonnull align 8 dereferenceable(24) %0) #6 comdat align 2 {
  %2 = alloca ptr, align 8
  store ptr %0, ptr %2, align 8, !tbaa !469
  %3 = load ptr, ptr %2, align 8
  %4 = getelementptr inbounds nuw %"struct.std::_Vector_base.9", ptr %3, i32 0, i32 0
  ret ptr %4
}

; Function Attrs: mustprogress nounwind uwtable
define linkonce_odr hidden void @_ZNSt6vectorIlSaIlEE15_M_erase_at_endEPl(ptr noundef nonnull align 8 dereferenceable(24) %0, ptr noundef %1) #6 comdat align 2 personality ptr @__gxx_personality_v0 {
  %3 = alloca ptr, align 8
  %4 = alloca ptr, align 8
  %5 = alloca i64, align 8
  store ptr %0, ptr %3, align 8, !tbaa !193
  store ptr %1, ptr %4, align 8, !tbaa !135
  %6 = load ptr, ptr %3, align 8
  call void @llvm.lifetime.start.p0(i64 8, ptr %5) #3
  %7 = getelementptr inbounds nuw %"struct.std::_Vector_base.9", ptr %6, i32 0, i32 0
  %8 = getelementptr inbounds nuw %"struct.std::_Vector_base<long, std::allocator<long>>::_Vector_impl_data", ptr %7, i32 0, i32 1
  %9 = load ptr, ptr %8, align 8, !tbaa !196
  %10 = load ptr, ptr %4, align 8, !tbaa !135
  %11 = ptrtoint ptr %9 to i64
  %12 = ptrtoint ptr %10 to i64
  %13 = sub i64 %11, %12
  %14 = sdiv exact i64 %13, 8
  store i64 %14, ptr %5, align 8, !tbaa !64
  %15 = load i64, ptr %5, align 8, !tbaa !64
  %16 = icmp ne i64 %15, 0
  br i1 %16, label %17, label %27

17:                                               ; preds = %2
  %18 = load ptr, ptr %4, align 8, !tbaa !135
  %19 = getelementptr inbounds nuw %"struct.std::_Vector_base.9", ptr %6, i32 0, i32 0
  %20 = getelementptr inbounds nuw %"struct.std::_Vector_base<long, std::allocator<long>>::_Vector_impl_data", ptr %19, i32 0, i32 1
  %21 = load ptr, ptr %20, align 8, !tbaa !196
  %22 = call noundef nonnull align 1 dereferenceable(1) ptr @_ZNSt12_Vector_baseIlSaIlEE19_M_get_Tp_allocatorEv(ptr noundef nonnull align 8 dereferenceable(24) %6) #3
  invoke void @_ZSt8_DestroyIPllEvT_S1_RSaIT0_E(ptr noundef %18, ptr noundef %21, ptr noundef nonnull align 1 dereferenceable(1) %22)
          to label %23 unwind label %28

23:                                               ; preds = %17
  %24 = load ptr, ptr %4, align 8, !tbaa !135
  %25 = getelementptr inbounds nuw %"struct.std::_Vector_base.9", ptr %6, i32 0, i32 0
  %26 = getelementptr inbounds nuw %"struct.std::_Vector_base<long, std::allocator<long>>::_Vector_impl_data", ptr %25, i32 0, i32 1
  store ptr %24, ptr %26, align 8, !tbaa !196
  br label %27

27:                                               ; preds = %23, %2
  call void @llvm.lifetime.end.p0(i64 8, ptr %5) #3
  ret void

28:                                               ; preds = %17
  %29 = landingpad { ptr, i32 }
          catch ptr null
  %30 = extractvalue { ptr, i32 } %29, 0
  call void @__clang_call_terminate(ptr %30) #24
  unreachable
}

; Function Attrs: mustprogress nounwind uwtable
define hidden void @_ZN4perf19performance_metrics5clearEv(ptr noundef nonnull align 8 dereferenceable(84) %0) #6 align 2 {
  %2 = alloca ptr, align 8
  store ptr %0, ptr %2, align 8, !tbaa !143
  %3 = load ptr, ptr %2, align 8
  %4 = getelementptr inbounds nuw %"struct.perf::performance_metrics", ptr %3, i32 0, i32 0
  store i64 0, ptr %4, align 8, !tbaa !145
  %5 = getelementptr inbounds nuw %"struct.perf::performance_metrics", ptr %3, i32 0, i32 1
  store i64 0, ptr %5, align 8, !tbaa !146
  %6 = getelementptr inbounds nuw %"struct.perf::performance_metrics", ptr %3, i32 0, i32 2
  store i32 0, ptr %6, align 8, !tbaa !147
  %7 = getelementptr inbounds nuw %"struct.perf::performance_metrics", ptr %3, i32 0, i32 3
  store i32 0, ptr %7, align 4, !tbaa !148
  %8 = getelementptr inbounds nuw %"struct.perf::performance_metrics", ptr %3, i32 0, i32 4
  store double 0.000000e+00, ptr %8, align 8, !tbaa !149
  %9 = getelementptr inbounds nuw %"struct.perf::performance_metrics", ptr %3, i32 0, i32 5
  store double 0.000000e+00, ptr %9, align 8, !tbaa !150
  %10 = getelementptr inbounds nuw %"struct.perf::performance_metrics", ptr %3, i32 0, i32 6
  store double 0.000000e+00, ptr %10, align 8, !tbaa !151
  %11 = getelementptr inbounds nuw %"struct.perf::performance_metrics", ptr %3, i32 0, i32 7
  store double 0.000000e+00, ptr %11, align 8, !tbaa !152
  %12 = getelementptr inbounds nuw %"struct.perf::performance_metrics", ptr %3, i32 0, i32 8
  store double 0.000000e+00, ptr %12, align 8, !tbaa !153
  %13 = getelementptr inbounds nuw %"struct.perf::performance_metrics", ptr %3, i32 0, i32 9
  store double 0.000000e+00, ptr %13, align 8, !tbaa !154
  %14 = getelementptr inbounds nuw %"struct.perf::performance_metrics", ptr %3, i32 0, i32 10
  store double 0.000000e+00, ptr %14, align 8, !tbaa !155
  %15 = getelementptr inbounds nuw %"struct.perf::performance_metrics", ptr %3, i32 0, i32 11
  store i32 -1, ptr %15, align 8, !tbaa !156
  ret void
}

; Function Attrs: mustprogress nounwind uwtable
define linkonce_odr hidden void @_ZNSt6vectorIlSaIlEE5clearEv(ptr noundef nonnull align 8 dereferenceable(24) %0) #6 comdat align 2 {
  %2 = alloca ptr, align 8
  store ptr %0, ptr %2, align 8, !tbaa !193
  %3 = load ptr, ptr %2, align 8
  %4 = getelementptr inbounds nuw %"struct.std::_Vector_base.9", ptr %3, i32 0, i32 0
  %5 = getelementptr inbounds nuw %"struct.std::_Vector_base<long, std::allocator<long>>::_Vector_impl_data", ptr %4, i32 0, i32 0
  %6 = load ptr, ptr %5, align 8, !tbaa !195
  call void @_ZNSt6vectorIlSaIlEE15_M_erase_at_endEPl(ptr noundef nonnull align 8 dereferenceable(24) %3, ptr noundef %6) #3
  ret void
}

; Function Attrs: mustprogress uwtable
define hidden noundef nonnull align 8 dereferenceable(8) ptr @_ZN4perf8TestBase14_declareHelper4timeEd(ptr noundef nonnull align 8 dereferenceable(8) %0, double noundef %1) #7 align 2 {
  %3 = alloca ptr, align 8
  %4 = alloca double, align 8
  store ptr %0, ptr %3, align 8, !tbaa !258
  store double %1, ptr %4, align 8, !tbaa !25
  %5 = load ptr, ptr %3, align 8
  %6 = getelementptr inbounds nuw %"class.perf::TestBase::_declareHelper", ptr %5, i32 0, i32 0
  %7 = load ptr, ptr %6, align 8, !tbaa !260
  %8 = getelementptr inbounds nuw %"class.perf::TestBase", ptr %7, i32 0, i32 4
  call void @_ZNSt6vectorIlSaIlEE5clearEv(ptr noundef nonnull align 8 dereferenceable(24) %8) #3
  %9 = getelementptr inbounds nuw %"class.perf::TestBase::_declareHelper", ptr %5, i32 0, i32 0
  %10 = load ptr, ptr %9, align 8, !tbaa !260
  %11 = getelementptr inbounds nuw %"class.perf::TestBase", ptr %10, i32 0, i32 10
  store i32 -1, ptr %11, align 8, !tbaa !187
  %12 = load double, ptr %4, align 8, !tbaa !25
  %13 = call noundef double @_ZN2cv16getTickFrequencyEv()
  %14 = fmul double %12, %13
  %15 = fptosi double %14 to i64
  %16 = getelementptr inbounds nuw %"class.perf::TestBase::_declareHelper", ptr %5, i32 0, i32 0
  %17 = load ptr, ptr %16, align 8, !tbaa !260
  %18 = getelementptr inbounds nuw %"class.perf::TestBase", ptr %17, i32 0, i32 7
  store i64 %15, ptr %18, align 8, !tbaa !183
  %19 = getelementptr inbounds nuw %"class.perf::TestBase::_declareHelper", ptr %5, i32 0, i32 0
  %20 = load ptr, ptr %19, align 8, !tbaa !260
  %21 = getelementptr inbounds nuw %"class.perf::TestBase", ptr %20, i32 0, i32 14
  call void @_ZN4perf19performance_metrics5clearEv(ptr noundef nonnull align 8 dereferenceable(84) %21)
  ret ptr %5
}