; Function Attrs: mustprogress uwtable
define hidden noundef nonnull align 8 dereferenceable(8) ptr @_ZN4perf8TestBase14_declareHelper4timeEd(ptr noundef nonnull readonly returned align 8 dereferenceable(8) %0, double noundef %1) local_unnamed_addr #5 align 2 personality ptr @__gxx_personality_v0 {
  %3 = load ptr, ptr %0, align 8, !tbaa !289
  %4 = getelementptr inbounds nuw i8, ptr %3, i64 72
  %5 = load ptr, ptr %4, align 8, !tbaa !314
  %6 = getelementptr inbounds nuw i8, ptr %3, i64 80
  %7 = load ptr, ptr %6, align 8, !tbaa !313
  %.not.i.i = icmp eq ptr %7, %5
  br i1 %.not.i.i, label %_ZNSt6vectorIlSaIlEE5clearEv.exit, label %8

8:                                                ; preds = %2
  store ptr %5, ptr %6, align 8, !tbaa !313
  br label %_ZNSt6vectorIlSaIlEE5clearEv.exit

_ZNSt6vectorIlSaIlEE5clearEv.exit:                ; preds = %2, %8
  %9 = getelementptr inbounds nuw i8, ptr %3, i64 128
  store i32 -1, ptr %9, align 8, !tbaa !291
  %10 = tail call noundef double @_ZN2cv16getTickFrequencyEv()
  %11 = fmul double %1, %10
  %12 = fptosi double %11 to i64
  %13 = load ptr, ptr %0, align 8, !tbaa !289
  %14 = getelementptr inbounds nuw i8, ptr %13, i64 112
  store i64 %12, ptr %14, align 8, !tbaa !375
  %15 = getelementptr inbounds nuw i8, ptr %13, i64 144
  %16 = getelementptr inbounds nuw i8, ptr %13, i64 224
  tail call void @llvm.memset.p0.i64(ptr noundef nonnull align 8 dereferenceable(84) %15, i8 0, i64 80, i1 false)
  store i32 -1, ptr %16, align 8, !tbaa !250
  ret ptr %0
}